
malloc.so:     file format elf64-x86-64


Disassembly of section .plt:

0000000000001000 <find_fit@plt-0x10>:
    1000:	ff 35 02 30 00 00    	push   0x3002(%rip)        # 4008 <_GLOBAL_OFFSET_TABLE_+0x8>
    1006:	ff 25 04 30 00 00    	jmp    *0x3004(%rip)        # 4010 <_GLOBAL_OFFSET_TABLE_+0x10>
    100c:	0f 1f 40 00          	nopl   0x0(%rax)

0000000000001010 <find_fit@plt>:
    1010:	ff 25 02 30 00 00    	jmp    *0x3002(%rip)        # 4018 <find_fit>
    1016:	68 00 00 00 00       	push   $0x0
    101b:	e9 e0 ff ff ff       	jmp    1000 <find_fit@plt-0x10>

0000000000001020 <remove_free_block@plt>:
    1020:	ff 25 fa 2f 00 00    	jmp    *0x2ffa(%rip)        # 4020 <remove_free_block>
    1026:	68 01 00 00 00       	push   $0x1
    102b:	e9 d0 ff ff ff       	jmp    1000 <find_fit@plt-0x10>

0000000000001030 <round_up@plt>:
    1030:	ff 25 f2 2f 00 00    	jmp    *0x2ff2(%rip)        # 4028 <round_up>
    1036:	68 02 00 00 00       	push   $0x2
    103b:	e9 c0 ff ff ff       	jmp    1000 <find_fit@plt-0x10>

0000000000001040 <extend_bmp@plt>:
    1040:	ff 25 ea 2f 00 00    	jmp    *0x2fea(%rip)        # 4030 <extend_bmp+0x2810>
    1046:	68 03 00 00 00       	push   $0x3
    104b:	e9 b0 ff ff ff       	jmp    1000 <find_fit@plt-0x10>

0000000000001050 <strerror@plt>:
    1050:	ff 25 e2 2f 00 00    	jmp    *0x2fe2(%rip)        # 4038 <strerror>
    1056:	68 04 00 00 00       	push   $0x4
    105b:	e9 a0 ff ff ff       	jmp    1000 <find_fit@plt-0x10>

0000000000001060 <munmap@plt>:
    1060:	ff 25 da 2f 00 00    	jmp    *0x2fda(%rip)        # 4040 <munmap>
    1066:	68 05 00 00 00       	push   $0x5
    106b:	e9 90 ff ff ff       	jmp    1000 <find_fit@plt-0x10>

0000000000001070 <split_block@plt>:
    1070:	ff 25 d2 2f 00 00    	jmp    *0x2fd2(%rip)        # 4048 <split_block>
    1076:	68 06 00 00 00       	push   $0x6
    107b:	e9 80 ff ff ff       	jmp    1000 <find_fit@plt-0x10>

0000000000001080 <insert_free_block@plt>:
    1080:	ff 25 ca 2f 00 00    	jmp    *0x2fca(%rip)        # 4050 <insert_free_block>
    1086:	68 07 00 00 00       	push   $0x7
    108b:	e9 70 ff ff ff       	jmp    1000 <find_fit@plt-0x10>

0000000000001090 <get_payload_size@plt>:
    1090:	ff 25 c2 2f 00 00    	jmp    *0x2fc2(%rip)        # 4058 <get_payload_size>
    1096:	68 08 00 00 00       	push   $0x8
    109b:	e9 60 ff ff ff       	jmp    1000 <find_fit@plt-0x10>

00000000000010a0 <getpagesize@plt>:
    10a0:	ff 25 ba 2f 00 00    	jmp    *0x2fba(%rip)        # 4060 <getpagesize>
    10a6:	68 09 00 00 00       	push   $0x9
    10ab:	e9 50 ff ff ff       	jmp    1000 <find_fit@plt-0x10>

00000000000010b0 <payload_to_header@plt>:
    10b0:	ff 25 b2 2f 00 00    	jmp    *0x2fb2(%rip)        # 4068 <payload_to_header>
    10b6:	68 0a 00 00 00       	push   $0xa
    10bb:	e9 40 ff ff ff       	jmp    1000 <find_fit@plt-0x10>

00000000000010c0 <memcpy@plt>:
    10c0:	ff 25 aa 2f 00 00    	jmp    *0x2faa(%rip)        # 4070 <memcpy>
    10c6:	68 0b 00 00 00       	push   $0xb
    10cb:	e9 30 ff ff ff       	jmp    1000 <find_fit@plt-0x10>

00000000000010d0 <malloc@plt>:
    10d0:	ff 25 a2 2f 00 00    	jmp    *0x2fa2(%rip)        # 4078 <malloc+0x2d78>
    10d6:	68 0c 00 00 00       	push   $0xc
    10db:	e9 20 ff ff ff       	jmp    1000 <find_fit@plt-0x10>

00000000000010e0 <extend_heap@plt>:
    10e0:	ff 25 9a 2f 00 00    	jmp    *0x2f9a(%rip)        # 4080 <extend_heap>
    10e6:	68 0d 00 00 00       	push   $0xd
    10eb:	e9 10 ff ff ff       	jmp    1000 <find_fit@plt-0x10>

00000000000010f0 <get_prev_alloc@plt>:
    10f0:	ff 25 92 2f 00 00    	jmp    *0x2f92(%rip)        # 4088 <get_prev_alloc>
    10f6:	68 0e 00 00 00       	push   $0xe
    10fb:	e9 00 ff ff ff       	jmp    1000 <find_fit@plt-0x10>

0000000000001100 <get_prev_mini@plt>:
    1100:	ff 25 8a 2f 00 00    	jmp    *0x2f8a(%rip)        # 4090 <get_prev_mini>
    1106:	68 0f 00 00 00       	push   $0xf
    110b:	e9 f0 fe ff ff       	jmp    1000 <find_fit@plt-0x10>

0000000000001110 <mmap@plt>:
    1110:	ff 25 82 2f 00 00    	jmp    *0x2f82(%rip)        # 4098 <mmap>
    1116:	68 10 00 00 00       	push   $0x10
    111b:	e9 e0 fe ff ff       	jmp    1000 <find_fit@plt-0x10>

0000000000001120 <init_heap@plt>:
    1120:	ff 25 7a 2f 00 00    	jmp    *0x2f7a(%rip)        # 40a0 <init_heap+0x2ea0>
    1126:	68 11 00 00 00       	push   $0x11
    112b:	e9 d0 fe ff ff       	jmp    1000 <find_fit@plt-0x10>

0000000000001130 <fprintf@plt>:
    1130:	ff 25 72 2f 00 00    	jmp    *0x2f72(%rip)        # 40a8 <fprintf>
    1136:	68 12 00 00 00       	push   $0x12
    113b:	e9 c0 fe ff ff       	jmp    1000 <find_fit@plt-0x10>

0000000000001140 <coalesce_block@plt>:
    1140:	ff 25 6a 2f 00 00    	jmp    *0x2f6a(%rip)        # 40b0 <coalesce_block>
    1146:	68 13 00 00 00       	push   $0x13
    114b:	e9 b0 fe ff ff       	jmp    1000 <find_fit@plt-0x10>

0000000000001150 <max@plt>:
    1150:	ff 25 62 2f 00 00    	jmp    *0x2f62(%rip)        # 40b8 <max>
    1156:	68 14 00 00 00       	push   $0x14
    115b:	e9 a0 fe ff ff       	jmp    1000 <find_fit@plt-0x10>

0000000000001160 <memset@plt>:
    1160:	ff 25 5a 2f 00 00    	jmp    *0x2f5a(%rip)        # 40c0 <memset>
    1166:	68 15 00 00 00       	push   $0x15
    116b:	e9 90 fe ff ff       	jmp    1000 <find_fit@plt-0x10>

0000000000001170 <__assert_fail@plt>:
    1170:	ff 25 52 2f 00 00    	jmp    *0x2f52(%rip)        # 40c8 <__assert_fail>
    1176:	68 16 00 00 00       	push   $0x16
    117b:	e9 80 fe ff ff       	jmp    1000 <find_fit@plt-0x10>

0000000000001180 <write_block@plt>:
    1180:	ff 25 4a 2f 00 00    	jmp    *0x2f4a(%rip)        # 40d0 <write_block>
    1186:	68 17 00 00 00       	push   $0x17
    118b:	e9 70 fe ff ff       	jmp    1000 <find_fit@plt-0x10>

0000000000001190 <__errno_location@plt>:
    1190:	ff 25 42 2f 00 00    	jmp    *0x2f42(%rip)        # 40d8 <__errno_location>
    1196:	68 18 00 00 00       	push   $0x18
    119b:	e9 60 fe ff ff       	jmp    1000 <find_fit@plt-0x10>

00000000000011a0 <exit@plt>:
    11a0:	ff 25 3a 2f 00 00    	jmp    *0x2f3a(%rip)        # 40e0 <exit>
    11a6:	68 19 00 00 00       	push   $0x19
    11ab:	e9 50 fe ff ff       	jmp    1000 <find_fit@plt-0x10>

00000000000011b0 <get_size@plt>:
    11b0:	ff 25 32 2f 00 00    	jmp    *0x2f32(%rip)        # 40e8 <get_size>
    11b6:	68 1a 00 00 00       	push   $0x1a
    11bb:	e9 40 fe ff ff       	jmp    1000 <find_fit@plt-0x10>

00000000000011c0 <mprotect@plt>:
    11c0:	ff 25 2a 2f 00 00    	jmp    *0x2f2a(%rip)        # 40f0 <mprotect>
    11c6:	68 1b 00 00 00       	push   $0x1b
    11cb:	e9 30 fe ff ff       	jmp    1000 <find_fit@plt-0x10>

00000000000011d0 <header_to_payload@plt>:
    11d0:	ff 25 22 2f 00 00    	jmp    *0x2f22(%rip)        # 40f8 <header_to_payload>
    11d6:	68 1c 00 00 00       	push   $0x1c
    11db:	e9 20 fe ff ff       	jmp    1000 <find_fit@plt-0x10>

00000000000011e0 <free@plt>:
    11e0:	ff 25 1a 2f 00 00    	jmp    *0x2f1a(%rip)        # 4100 <free+0x2cc0>
    11e6:	68 1d 00 00 00       	push   $0x1d
    11eb:	e9 10 fe ff ff       	jmp    1000 <find_fit@plt-0x10>

00000000000011f0 <pack@plt>:
    11f0:	ff 25 12 2f 00 00    	jmp    *0x2f12(%rip)        # 4108 <pack>
    11f6:	68 1e 00 00 00       	push   $0x1e
    11fb:	e9 00 fe ff ff       	jmp    1000 <find_fit@plt-0x10>

Disassembly of section .text:

0000000000001200 <init_heap>:
    1200:	55                   	push   %rbp
    1201:	48 89 e5             	mov    %rsp,%rbp
    1204:	48 83 ec 20          	sub    $0x20,%rsp
    1208:	bf 10 00 00 00       	mov    $0x10,%edi
    120d:	e8 2e fe ff ff       	call   1040 <extend_bmp@plt>
    1212:	48 89 45 f0          	mov    %rax,-0x10(%rbp)
    1216:	48 c7 c0 ff ff ff ff 	mov    $0xffffffffffffffff,%rax
    121d:	48 39 45 f0          	cmp    %rax,-0x10(%rbp)
    1221:	0f 85 09 00 00 00    	jne    1230 <init_heap+0x30>
    1227:	c6 45 ff 00          	movb   $0x0,-0x1(%rbp)
    122b:	e9 b4 00 00 00       	jmp    12e4 <init_heap+0xe4>
    1230:	31 c0                	xor    %eax,%eax
    1232:	89 c7                	mov    %eax,%edi
    1234:	ba 01 00 00 00       	mov    $0x1,%edx
    1239:	31 c9                	xor    %ecx,%ecx
    123b:	89 d6                	mov    %edx,%esi
    123d:	e8 ae ff ff ff       	call   11f0 <pack@plt>
    1242:	48 89 c1             	mov    %rax,%rcx
    1245:	48 8b 45 f0          	mov    -0x10(%rbp),%rax
    1249:	48 89 08             	mov    %rcx,(%rax)
    124c:	31 c0                	xor    %eax,%eax
    124e:	89 c7                	mov    %eax,%edi
    1250:	ba 01 00 00 00       	mov    $0x1,%edx
    1255:	31 c9                	xor    %ecx,%ecx
    1257:	89 d6                	mov    %edx,%esi
    1259:	e8 92 ff ff ff       	call   11f0 <pack@plt>
    125e:	48 89 c1             	mov    %rax,%rcx
    1261:	48 8b 45 f0          	mov    -0x10(%rbp),%rax
    1265:	48 89 48 08          	mov    %rcx,0x8(%rax)
    1269:	48 8b 45 f0          	mov    -0x10(%rbp),%rax
    126d:	48 83 c0 08          	add    $0x8,%rax
    1271:	48 89 05 a8 2e 00 00 	mov    %rax,0x2ea8(%rip)        # 4120 <heap_start>
    1278:	48 c7 05 8d 2e 00 00 	movq   $0x1000,0x2e8d(%rip)        # 4110 <chunksize>
    127f:	00 10 00 00 
    1283:	c7 45 ec 00 00 00 00 	movl   $0x0,-0x14(%rbp)
    128a:	83 7d ec 09          	cmpl   $0x9,-0x14(%rbp)
    128e:	0f 8d 21 00 00 00    	jge    12b5 <init_heap+0xb5>
    1294:	48 63 4d ec          	movslq -0x14(%rbp),%rcx
    1298:	48 8d 05 91 2e 00 00 	lea    0x2e91(%rip),%rax        # 4130 <seglists>
    129f:	48 c7 04 c8 00 00 00 	movq   $0x0,(%rax,%rcx,8)
    12a6:	00 
    12a7:	8b 45 ec             	mov    -0x14(%rbp),%eax
    12aa:	83 c0 01             	add    $0x1,%eax
    12ad:	89 45 ec             	mov    %eax,-0x14(%rbp)
    12b0:	e9 d5 ff ff ff       	jmp    128a <init_heap+0x8a>
    12b5:	48 8b 3d 54 2e 00 00 	mov    0x2e54(%rip),%rdi        # 4110 <chunksize>
    12bc:	e8 1f fe ff ff       	call   10e0 <extend_heap@plt>
    12c1:	48 83 f8 00          	cmp    $0x0,%rax
    12c5:	0f 85 09 00 00 00    	jne    12d4 <init_heap+0xd4>
    12cb:	c6 45 ff 00          	movb   $0x0,-0x1(%rbp)
    12cf:	e9 10 00 00 00       	jmp    12e4 <init_heap+0xe4>
    12d4:	48 8b 3d 45 2e 00 00 	mov    0x2e45(%rip),%rdi        # 4120 <heap_start>
    12db:	e8 a0 fd ff ff       	call   1080 <insert_free_block@plt>
    12e0:	c6 45 ff 01          	movb   $0x1,-0x1(%rbp)
    12e4:	8a 45 ff             	mov    -0x1(%rbp),%al
    12e7:	24 01                	and    $0x1,%al
    12e9:	0f b6 c0             	movzbl %al,%eax
    12ec:	48 83 c4 20          	add    $0x20,%rsp
    12f0:	5d                   	pop    %rbp
    12f1:	c3                   	ret    
    12f2:	66 2e 0f 1f 84 00 00 	cs nopw 0x0(%rax,%rax,1)
    12f9:	00 00 00 
    12fc:	0f 1f 40 00          	nopl   0x0(%rax)

0000000000001300 <malloc>:
    1300:	55                   	push   %rbp
    1301:	48 89 e5             	mov    %rsp,%rbp
    1304:	48 83 ec 40          	sub    $0x40,%rsp
    1308:	48 89 7d f0          	mov    %rdi,-0x10(%rbp)
    130c:	48 c7 45 d0 00 00 00 	movq   $0x0,-0x30(%rbp)
    1313:	00 
    1314:	48 83 3d 04 2e 00 00 	cmpq   $0x0,0x2e04(%rip)        # 4120 <heap_start>
    131b:	00 
    131c:	0f 85 05 00 00 00    	jne    1327 <malloc+0x27>
    1322:	e8 f9 fd ff ff       	call   1120 <init_heap@plt>
    1327:	48 83 7d f0 00       	cmpq   $0x0,-0x10(%rbp)
    132c:	0f 85 0d 00 00 00    	jne    133f <malloc+0x3f>
    1332:	48 8b 45 d0          	mov    -0x30(%rbp),%rax
    1336:	48 89 45 f8          	mov    %rax,-0x8(%rbp)
    133a:	e9 f6 00 00 00       	jmp    1435 <malloc+0x135>
    133f:	48 8b 7d f0          	mov    -0x10(%rbp),%rdi
    1343:	48 83 c7 08          	add    $0x8,%rdi
    1347:	be 10 00 00 00       	mov    $0x10,%esi
    134c:	e8 df fc ff ff       	call   1030 <round_up@plt>
    1351:	48 89 45 e8          	mov    %rax,-0x18(%rbp)
    1355:	48 8b 7d e8          	mov    -0x18(%rbp),%rdi
    1359:	be 10 00 00 00       	mov    $0x10,%esi
    135e:	e8 ed fd ff ff       	call   1150 <max@plt>
    1363:	48 89 45 e8          	mov    %rax,-0x18(%rbp)
    1367:	48 8b 7d e8          	mov    -0x18(%rbp),%rdi
    136b:	e8 a0 fc ff ff       	call   1010 <find_fit@plt>
    1370:	48 89 45 d8          	mov    %rax,-0x28(%rbp)
    1374:	48 83 7d d8 00       	cmpq   $0x0,-0x28(%rbp)
    1379:	0f 85 3e 00 00 00    	jne    13bd <malloc+0xbd>
    137f:	48 8b 7d e8          	mov    -0x18(%rbp),%rdi
    1383:	48 8b 35 86 2d 00 00 	mov    0x2d86(%rip),%rsi        # 4110 <chunksize>
    138a:	e8 c1 fd ff ff       	call   1150 <max@plt>
    138f:	48 89 45 e0          	mov    %rax,-0x20(%rbp)
    1393:	48 8b 7d e0          	mov    -0x20(%rbp),%rdi
    1397:	e8 44 fd ff ff       	call   10e0 <extend_heap@plt>
    139c:	48 89 45 d8          	mov    %rax,-0x28(%rbp)
    13a0:	48 83 7d d8 00       	cmpq   $0x0,-0x28(%rbp)
    13a5:	0f 85 0d 00 00 00    	jne    13b8 <malloc+0xb8>
    13ab:	48 8b 45 d0          	mov    -0x30(%rbp),%rax
    13af:	48 89 45 f8          	mov    %rax,-0x8(%rbp)
    13b3:	e9 7d 00 00 00       	jmp    1435 <malloc+0x135>
    13b8:	e9 00 00 00 00       	jmp    13bd <malloc+0xbd>
    13bd:	48 8b 7d d8          	mov    -0x28(%rbp),%rdi
    13c1:	e8 ea fd ff ff       	call   11b0 <get_size@plt>
    13c6:	48 89 45 c8          	mov    %rax,-0x38(%rbp)
    13ca:	48 8b 7d d8          	mov    -0x28(%rbp),%rdi
    13ce:	e8 4d fc ff ff       	call   1020 <remove_free_block@plt>
    13d3:	48 8b 7d d8          	mov    -0x28(%rbp),%rdi
    13d7:	e8 14 fd ff ff       	call   10f0 <get_prev_alloc@plt>
    13dc:	24 01                	and    $0x1,%al
    13de:	88 45 c7             	mov    %al,-0x39(%rbp)
    13e1:	48 8b 7d d8          	mov    -0x28(%rbp),%rdi
    13e5:	e8 16 fd ff ff       	call   1100 <get_prev_mini@plt>
    13ea:	24 01                	and    $0x1,%al
    13ec:	88 45 c6             	mov    %al,-0x3a(%rbp)
    13ef:	48 8b 7d d8          	mov    -0x28(%rbp),%rdi
    13f3:	48 8b 75 c8          	mov    -0x38(%rbp),%rsi
    13f7:	8a 4d c7             	mov    -0x39(%rbp),%cl
    13fa:	8a 45 c6             	mov    -0x3a(%rbp),%al
    13fd:	ba 01 00 00 00       	mov    $0x1,%edx
    1402:	80 e1 01             	and    $0x1,%cl
    1405:	24 01                	and    $0x1,%al
    1407:	0f b6 c9             	movzbl %cl,%ecx
    140a:	44 0f b6 c0          	movzbl %al,%r8d
    140e:	e8 6d fd ff ff       	call   1180 <write_block@plt>
    1413:	48 8b 7d d8          	mov    -0x28(%rbp),%rdi
    1417:	48 8b 75 e8          	mov    -0x18(%rbp),%rsi
    141b:	e8 50 fc ff ff       	call   1070 <split_block@plt>
    1420:	48 8b 7d d8          	mov    -0x28(%rbp),%rdi
    1424:	e8 a7 fd ff ff       	call   11d0 <header_to_payload@plt>
    1429:	48 89 45 d0          	mov    %rax,-0x30(%rbp)
    142d:	48 8b 45 d0          	mov    -0x30(%rbp),%rax
    1431:	48 89 45 f8          	mov    %rax,-0x8(%rbp)
    1435:	48 8b 45 f8          	mov    -0x8(%rbp),%rax
    1439:	48 83 c4 40          	add    $0x40,%rsp
    143d:	5d                   	pop    %rbp
    143e:	c3                   	ret    
    143f:	90                   	nop

0000000000001440 <free>:
    1440:	55                   	push   %rbp
    1441:	48 89 e5             	mov    %rsp,%rbp
    1444:	48 83 ec 20          	sub    $0x20,%rsp
    1448:	48 89 7d f8          	mov    %rdi,-0x8(%rbp)
    144c:	48 83 7d f8 00       	cmpq   $0x0,-0x8(%rbp)
    1451:	0f 85 05 00 00 00    	jne    145c <free+0x1c>
    1457:	e9 69 00 00 00       	jmp    14c5 <free+0x85>
    145c:	48 8b 7d f8          	mov    -0x8(%rbp),%rdi
    1460:	e8 4b fc ff ff       	call   10b0 <payload_to_header@plt>
    1465:	48 89 45 f0          	mov    %rax,-0x10(%rbp)
    1469:	48 8b 7d f0          	mov    -0x10(%rbp),%rdi
    146d:	e8 3e fd ff ff       	call   11b0 <get_size@plt>
    1472:	48 89 45 e8          	mov    %rax,-0x18(%rbp)
    1476:	48 8b 7d f0          	mov    -0x10(%rbp),%rdi
    147a:	e8 71 fc ff ff       	call   10f0 <get_prev_alloc@plt>
    147f:	24 01                	and    $0x1,%al
    1481:	88 45 e7             	mov    %al,-0x19(%rbp)
    1484:	48 8b 7d f0          	mov    -0x10(%rbp),%rdi
    1488:	e8 73 fc ff ff       	call   1100 <get_prev_mini@plt>
    148d:	24 01                	and    $0x1,%al
    148f:	88 45 e6             	mov    %al,-0x1a(%rbp)
    1492:	48 8b 7d f0          	mov    -0x10(%rbp),%rdi
    1496:	48 8b 75 e8          	mov    -0x18(%rbp),%rsi
    149a:	8a 4d e7             	mov    -0x19(%rbp),%cl
    149d:	8a 45 e6             	mov    -0x1a(%rbp),%al
    14a0:	31 d2                	xor    %edx,%edx
    14a2:	80 e1 01             	and    $0x1,%cl
    14a5:	24 01                	and    $0x1,%al
    14a7:	0f b6 c9             	movzbl %cl,%ecx
    14aa:	44 0f b6 c0          	movzbl %al,%r8d
    14ae:	e8 cd fc ff ff       	call   1180 <write_block@plt>
    14b3:	48 8b 7d f0          	mov    -0x10(%rbp),%rdi
    14b7:	e8 c4 fb ff ff       	call   1080 <insert_free_block@plt>
    14bc:	48 8b 7d f0          	mov    -0x10(%rbp),%rdi
    14c0:	e8 7b fc ff ff       	call   1140 <coalesce_block@plt>
    14c5:	48 83 c4 20          	add    $0x20,%rsp
    14c9:	5d                   	pop    %rbp
    14ca:	c3                   	ret    
    14cb:	0f 1f 44 00 00       	nopl   0x0(%rax,%rax,1)

00000000000014d0 <realloc>:
    14d0:	55                   	push   %rbp
    14d1:	48 89 e5             	mov    %rsp,%rbp
    14d4:	48 83 ec 30          	sub    $0x30,%rsp
    14d8:	48 89 7d f0          	mov    %rdi,-0x10(%rbp)
    14dc:	48 89 75 e8          	mov    %rsi,-0x18(%rbp)
    14e0:	48 8b 7d f0          	mov    -0x10(%rbp),%rdi
    14e4:	e8 c7 fb ff ff       	call   10b0 <payload_to_header@plt>
    14e9:	48 89 45 e0          	mov    %rax,-0x20(%rbp)
    14ed:	48 83 7d e8 00       	cmpq   $0x0,-0x18(%rbp)
    14f2:	0f 85 16 00 00 00    	jne    150e <realloc+0x3e>
    14f8:	48 8b 7d f0          	mov    -0x10(%rbp),%rdi
    14fc:	e8 df fc ff ff       	call   11e0 <free@plt>
    1501:	48 c7 45 f8 00 00 00 	movq   $0x0,-0x8(%rbp)
    1508:	00 
    1509:	e9 87 00 00 00       	jmp    1595 <realloc+0xc5>
    150e:	48 83 7d f0 00       	cmpq   $0x0,-0x10(%rbp)
    1513:	0f 85 12 00 00 00    	jne    152b <realloc+0x5b>
    1519:	48 8b 7d e8          	mov    -0x18(%rbp),%rdi
    151d:	e8 ae fb ff ff       	call   10d0 <malloc@plt>
    1522:	48 89 45 f8          	mov    %rax,-0x8(%rbp)
    1526:	e9 6a 00 00 00       	jmp    1595 <realloc+0xc5>
    152b:	48 8b 7d e8          	mov    -0x18(%rbp),%rdi
    152f:	e8 9c fb ff ff       	call   10d0 <malloc@plt>
    1534:	48 89 45 d0          	mov    %rax,-0x30(%rbp)
    1538:	48 83 7d d0 00       	cmpq   $0x0,-0x30(%rbp)
    153d:	0f 85 0d 00 00 00    	jne    1550 <realloc+0x80>
    1543:	48 c7 45 f8 00 00 00 	movq   $0x0,-0x8(%rbp)
    154a:	00 
    154b:	e9 45 00 00 00       	jmp    1595 <realloc+0xc5>
    1550:	48 8b 7d e0          	mov    -0x20(%rbp),%rdi
    1554:	e8 37 fb ff ff       	call   1090 <get_payload_size@plt>
    1559:	48 89 45 d8          	mov    %rax,-0x28(%rbp)
    155d:	48 8b 45 e8          	mov    -0x18(%rbp),%rax
    1561:	48 3b 45 d8          	cmp    -0x28(%rbp),%rax
    1565:	0f 83 08 00 00 00    	jae    1573 <realloc+0xa3>
    156b:	48 8b 45 e8          	mov    -0x18(%rbp),%rax
    156f:	48 89 45 d8          	mov    %rax,-0x28(%rbp)
    1573:	48 8b 7d d0          	mov    -0x30(%rbp),%rdi
    1577:	48 8b 75 f0          	mov    -0x10(%rbp),%rsi
    157b:	48 8b 55 d8          	mov    -0x28(%rbp),%rdx
    157f:	e8 3c fb ff ff       	call   10c0 <memcpy@plt>
    1584:	48 8b 7d f0          	mov    -0x10(%rbp),%rdi
    1588:	e8 53 fc ff ff       	call   11e0 <free@plt>
    158d:	48 8b 45 d0          	mov    -0x30(%rbp),%rax
    1591:	48 89 45 f8          	mov    %rax,-0x8(%rbp)
    1595:	48 8b 45 f8          	mov    -0x8(%rbp),%rax
    1599:	48 83 c4 30          	add    $0x30,%rsp
    159d:	5d                   	pop    %rbp
    159e:	c3                   	ret    
    159f:	90                   	nop

00000000000015a0 <calloc>:
    15a0:	55                   	push   %rbp
    15a1:	48 89 e5             	mov    %rsp,%rbp
    15a4:	48 83 ec 30          	sub    $0x30,%rsp
    15a8:	48 89 7d f0          	mov    %rdi,-0x10(%rbp)
    15ac:	48 89 75 e8          	mov    %rsi,-0x18(%rbp)
    15b0:	48 8b 45 f0          	mov    -0x10(%rbp),%rax
    15b4:	48 0f af 45 e8       	imul   -0x18(%rbp),%rax
    15b9:	48 89 45 d8          	mov    %rax,-0x28(%rbp)
    15bd:	48 83 7d f0 00       	cmpq   $0x0,-0x10(%rbp)
    15c2:	0f 85 0d 00 00 00    	jne    15d5 <calloc+0x35>
    15c8:	48 c7 45 f8 00 00 00 	movq   $0x0,-0x8(%rbp)
    15cf:	00 
    15d0:	e9 5f 00 00 00       	jmp    1634 <calloc+0x94>
    15d5:	48 8b 45 d8          	mov    -0x28(%rbp),%rax
    15d9:	31 c9                	xor    %ecx,%ecx
    15db:	89 ca                	mov    %ecx,%edx
    15dd:	48 f7 75 f0          	divq   -0x10(%rbp)
    15e1:	48 3b 45 e8          	cmp    -0x18(%rbp),%rax
    15e5:	0f 84 0d 00 00 00    	je     15f8 <calloc+0x58>
    15eb:	48 c7 45 f8 00 00 00 	movq   $0x0,-0x8(%rbp)
    15f2:	00 
    15f3:	e9 3c 00 00 00       	jmp    1634 <calloc+0x94>
    15f8:	48 8b 7d d8          	mov    -0x28(%rbp),%rdi
    15fc:	e8 cf fa ff ff       	call   10d0 <malloc@plt>
    1601:	48 89 45 e0          	mov    %rax,-0x20(%rbp)
    1605:	48 83 7d e0 00       	cmpq   $0x0,-0x20(%rbp)
    160a:	0f 85 0d 00 00 00    	jne    161d <calloc+0x7d>
    1610:	48 c7 45 f8 00 00 00 	movq   $0x0,-0x8(%rbp)
    1617:	00 
    1618:	e9 17 00 00 00       	jmp    1634 <calloc+0x94>
    161d:	48 8b 7d e0          	mov    -0x20(%rbp),%rdi
    1621:	48 8b 55 d8          	mov    -0x28(%rbp),%rdx
    1625:	31 f6                	xor    %esi,%esi
    1627:	e8 34 fb ff ff       	call   1160 <memset@plt>
    162c:	48 8b 45 e0          	mov    -0x20(%rbp),%rax
    1630:	48 89 45 f8          	mov    %rax,-0x8(%rbp)
    1634:	48 8b 45 f8          	mov    -0x8(%rbp),%rax
    1638:	48 83 c4 30          	add    $0x30,%rsp
    163c:	5d                   	pop    %rbp
    163d:	c3                   	ret    
    163e:	66 90                	xchg   %ax,%ax

0000000000001640 <heap_init>:
    1640:	55                   	push   %rbp
    1641:	48 89 e5             	mov    %rsp,%rbp
    1644:	48 83 ec 20          	sub    $0x20,%rsp
    1648:	b8 00 00 00 08       	mov    $0x8000000,%eax
    164d:	48 89 45 f8          	mov    %rax,-0x8(%rbp)
    1651:	c7 45 f4 03 00 00 00 	movl   $0x3,-0xc(%rbp)
    1658:	48 8b 7d f8          	mov    -0x8(%rbp),%rdi
    165c:	48 8b 35 b5 2a 00 00 	mov    0x2ab5(%rip),%rsi        # 4118 <init_mmap_length>
    1663:	8b 55 f4             	mov    -0xc(%rbp),%edx
    1666:	b9 22 00 00 00       	mov    $0x22,%ecx
    166b:	41 b8 ff ff ff ff    	mov    $0xffffffff,%r8d
    1671:	31 c0                	xor    %eax,%eax
    1673:	41 89 c1             	mov    %eax,%r9d
    1676:	e8 95 fa ff ff       	call   1110 <mmap@plt>
    167b:	48 89 45 e8          	mov    %rax,-0x18(%rbp)
    167f:	48 c7 c0 ff ff ff ff 	mov    $0xffffffffffffffff,%rax
    1686:	48 39 45 e8          	cmp    %rax,-0x18(%rbp)
    168a:	0f 85 39 00 00 00    	jne    16c9 <heap_init+0x89>
    1690:	48 8b 05 61 29 00 00 	mov    0x2961(%rip),%rax        # 3ff8 <stderr>
    1697:	48 8b 00             	mov    (%rax),%rax
    169a:	48 89 45 e0          	mov    %rax,-0x20(%rbp)
    169e:	e8 ed fa ff ff       	call   1190 <__errno_location@plt>
    16a3:	8b 38                	mov    (%rax),%edi
    16a5:	e8 a6 f9 ff ff       	call   1050 <strerror@plt>
    16aa:	48 8b 7d e0          	mov    -0x20(%rbp),%rdi
    16ae:	48 89 c2             	mov    %rax,%rdx
    16b1:	48 8d 35 48 09 00 00 	lea    0x948(%rip),%rsi        # 2000 <current_arena_usage+0x5c0>
    16b8:	b0 00                	mov    $0x0,%al
    16ba:	e8 71 fa ff ff       	call   1130 <fprintf@plt>
    16bf:	bf 01 00 00 00       	mov    $0x1,%edi
    16c4:	e8 d7 fa ff ff       	call   11a0 <exit@plt>
    16c9:	e8 d2 f9 ff ff       	call   10a0 <getpagesize@plt>
    16ce:	48 98                	cltq   
    16d0:	48 89 05 a1 2a 00 00 	mov    %rax,0x2aa1(%rip)        # 4178 <pagesize>
    16d7:	48 8b 7d e8          	mov    -0x18(%rbp),%rdi
    16db:	48 8b 35 96 2a 00 00 	mov    0x2a96(%rip),%rsi        # 4178 <pagesize>
    16e2:	e8 79 00 00 00       	call   1760 <round_address_down>
    16e7:	48 3b 45 e8          	cmp    -0x18(%rbp),%rax
    16eb:	0f 84 26 00 00 00    	je     1717 <heap_init+0xd7>
    16f1:	48 8b 05 00 29 00 00 	mov    0x2900(%rip),%rax        # 3ff8 <stderr>
    16f8:	48 8b 38             	mov    (%rax),%rdi
    16fb:	48 8b 55 e8          	mov    -0x18(%rbp),%rdx
    16ff:	48 8d 35 30 09 00 00 	lea    0x930(%rip),%rsi        # 2036 <current_arena_usage+0x5f6>
    1706:	b0 00                	mov    $0x0,%al
    1708:	e8 23 fa ff ff       	call   1130 <fprintf@plt>
    170d:	bf 01 00 00 00       	mov    $0x1,%edi
    1712:	e8 89 fa ff ff       	call   11a0 <exit@plt>
    1717:	48 8b 45 e8          	mov    -0x18(%rbp),%rax
    171b:	48 89 05 5e 2a 00 00 	mov    %rax,0x2a5e(%rip)        # 4180 <heap>
    1722:	48 8b 05 57 2a 00 00 	mov    0x2a57(%rip),%rax        # 4180 <heap>
    1729:	48 03 05 e8 29 00 00 	add    0x29e8(%rip),%rax        # 4118 <init_mmap_length>
    1730:	48 89 05 51 2a 00 00 	mov    %rax,0x2a51(%rip)        # 4188 <mem_max_addr>
    1737:	48 8b 05 42 2a 00 00 	mov    0x2a42(%rip),%rax        # 4180 <heap>
    173e:	48 89 05 4b 2a 00 00 	mov    %rax,0x2a4b(%rip)        # 4190 <mem_brk>
    1745:	48 8b 05 34 2a 00 00 	mov    0x2a34(%rip),%rax        # 4180 <heap>
    174c:	48 89 05 45 2a 00 00 	mov    %rax,0x2a45(%rip)        # 4198 <mem_brk_chunk>
    1753:	48 83 c4 20          	add    $0x20,%rsp
    1757:	5d                   	pop    %rbp
    1758:	c3                   	ret    
    1759:	0f 1f 80 00 00 00 00 	nopl   0x0(%rax)

0000000000001760 <round_address_down>:
    1760:	55                   	push   %rbp
    1761:	48 89 e5             	mov    %rsp,%rbp
    1764:	48 83 ec 10          	sub    $0x10,%rsp
    1768:	48 89 7d f8          	mov    %rdi,-0x8(%rbp)
    176c:	48 89 75 f0          	mov    %rsi,-0x10(%rbp)
    1770:	48 8b 45 f0          	mov    -0x10(%rbp),%rax
    1774:	48 8b 4d f0          	mov    -0x10(%rbp),%rcx
    1778:	48 83 e9 01          	sub    $0x1,%rcx
    177c:	48 21 c8             	and    %rcx,%rax
    177f:	48 83 f8 00          	cmp    $0x0,%rax
    1783:	0f 85 05 00 00 00    	jne    178e <round_address_down+0x2e>
    1789:	e9 1f 00 00 00       	jmp    17ad <round_address_down+0x4d>
    178e:	48 8d 3d b1 09 00 00 	lea    0x9b1(%rip),%rdi        # 2146 <current_arena_usage+0x706>
    1795:	48 8d 35 c5 09 00 00 	lea    0x9c5(%rip),%rsi        # 2161 <current_arena_usage+0x721>
    179c:	ba 15 00 00 00       	mov    $0x15,%edx
    17a1:	48 8d 0d ca 09 00 00 	lea    0x9ca(%rip),%rcx        # 2172 <current_arena_usage+0x732>
    17a8:	e8 c3 f9 ff ff       	call   1170 <__assert_fail@plt>
    17ad:	48 8b 45 f8          	mov    -0x8(%rbp),%rax
    17b1:	48 8b 4d f0          	mov    -0x10(%rbp),%rcx
    17b5:	48 83 e9 01          	sub    $0x1,%rcx
    17b9:	48 83 f1 ff          	xor    $0xffffffffffffffff,%rcx
    17bd:	48 21 c8             	and    %rcx,%rax
    17c0:	48 83 c4 10          	add    $0x10,%rsp
    17c4:	5d                   	pop    %rbp
    17c5:	c3                   	ret    
    17c6:	66 2e 0f 1f 84 00 00 	cs nopw 0x0(%rax,%rax,1)
    17cd:	00 00 00 

00000000000017d0 <heap_deinit>:
    17d0:	55                   	push   %rbp
    17d1:	48 89 e5             	mov    %rsp,%rbp
    17d4:	48 8b 3d a5 29 00 00 	mov    0x29a5(%rip),%rdi        # 4180 <heap>
    17db:	48 8b 35 36 29 00 00 	mov    0x2936(%rip),%rsi        # 4118 <init_mmap_length>
    17e2:	e8 79 f8 ff ff       	call   1060 <munmap@plt>
    17e7:	5d                   	pop    %rbp
    17e8:	c3                   	ret    
    17e9:	0f 1f 80 00 00 00 00 	nopl   0x0(%rax)

00000000000017f0 <reset_bmp_ptr>:
    17f0:	55                   	push   %rbp
    17f1:	48 89 e5             	mov    %rsp,%rbp
    17f4:	48 8b 05 85 29 00 00 	mov    0x2985(%rip),%rax        # 4180 <heap>
    17fb:	48 89 05 8e 29 00 00 	mov    %rax,0x298e(%rip)        # 4190 <mem_brk>
    1802:	48 8b 05 77 29 00 00 	mov    0x2977(%rip),%rax        # 4180 <heap>
    1809:	48 89 05 88 29 00 00 	mov    %rax,0x2988(%rip)        # 4198 <mem_brk_chunk>
    1810:	5d                   	pop    %rbp
    1811:	c3                   	ret    
    1812:	66 2e 0f 1f 84 00 00 	cs nopw 0x0(%rax,%rax,1)
    1819:	00 00 00 
    181c:	0f 1f 40 00          	nopl   0x0(%rax)

0000000000001820 <extend_bmp>:
    1820:	55                   	push   %rbp
    1821:	48 89 e5             	mov    %rsp,%rbp
    1824:	48 83 ec 50          	sub    $0x50,%rsp
    1828:	48 89 7d f0          	mov    %rdi,-0x10(%rbp)
    182c:	48 8b 05 5d 29 00 00 	mov    0x295d(%rip),%rax        # 4190 <mem_brk>
    1833:	48 89 45 e8          	mov    %rax,-0x18(%rbp)
    1837:	48 83 7d f0 00       	cmpq   $0x0,-0x10(%rbp)
    183c:	0f 8d 37 00 00 00    	jge    1879 <extend_bmp+0x59>
    1842:	48 8b 05 af 27 00 00 	mov    0x27af(%rip),%rax        # 3ff8 <stderr>
    1849:	48 8b 38             	mov    (%rax),%rdi
    184c:	48 8b 55 f0          	mov    -0x10(%rbp),%rdx
    1850:	48 8d 35 18 08 00 00 	lea    0x818(%rip),%rsi        # 206f <current_arena_usage+0x62f>
    1857:	b0 00                	mov    $0x0,%al
    1859:	e8 d2 f8 ff ff       	call   1130 <fprintf@plt>
    185e:	e8 2d f9 ff ff       	call   1190 <__errno_location@plt>
    1863:	c7 00 16 00 00 00    	movl   $0x16,(%rax)
    1869:	48 c7 c0 ff ff ff ff 	mov    $0xffffffffffffffff,%rax
    1870:	48 89 45 f8          	mov    %rax,-0x8(%rbp)
    1874:	e9 47 01 00 00       	jmp    19c0 <extend_bmp+0x1a0>
    1879:	48 8b 05 10 29 00 00 	mov    0x2910(%rip),%rax        # 4190 <mem_brk>
    1880:	48 03 45 f0          	add    -0x10(%rbp),%rax
    1884:	48 3b 05 fd 28 00 00 	cmp    0x28fd(%rip),%rax        # 4188 <mem_max_addr>
    188b:	0f 86 54 00 00 00    	jbe    18e5 <extend_bmp+0xc5>
    1891:	48 8b 05 f8 28 00 00 	mov    0x28f8(%rip),%rax        # 4190 <mem_brk>
    1898:	48 8b 0d e1 28 00 00 	mov    0x28e1(%rip),%rcx        # 4180 <heap>
    189f:	48 29 c8             	sub    %rcx,%rax
    18a2:	48 03 45 f0          	add    -0x10(%rbp),%rax
    18a6:	48 89 45 e0          	mov    %rax,-0x20(%rbp)
    18aa:	48 8b 05 47 27 00 00 	mov    0x2747(%rip),%rax        # 3ff8 <stderr>
    18b1:	48 8b 38             	mov    (%rax),%rdi
    18b4:	48 8b 55 e0          	mov    -0x20(%rbp),%rdx
    18b8:	48 8b 4d e0          	mov    -0x20(%rbp),%rcx
    18bc:	48 8d 35 f3 07 00 00 	lea    0x7f3(%rip),%rsi        # 20b6 <current_arena_usage+0x676>
    18c3:	b0 00                	mov    $0x0,%al
    18c5:	e8 66 f8 ff ff       	call   1130 <fprintf@plt>
    18ca:	e8 c1 f8 ff ff       	call   1190 <__errno_location@plt>
    18cf:	c7 00 0c 00 00 00    	movl   $0xc,(%rax)
    18d5:	48 c7 c0 ff ff ff ff 	mov    $0xffffffffffffffff,%rax
    18dc:	48 89 45 f8          	mov    %rax,-0x8(%rbp)
    18e0:	e9 db 00 00 00       	jmp    19c0 <extend_bmp+0x1a0>
    18e5:	48 8b 45 e8          	mov    -0x18(%rbp),%rax
    18e9:	48 03 45 f0          	add    -0x10(%rbp),%rax
    18ed:	48 89 45 d8          	mov    %rax,-0x28(%rbp)
    18f1:	48 8b 7d d8          	mov    -0x28(%rbp),%rdi
    18f5:	48 8b 35 7c 28 00 00 	mov    0x287c(%rip),%rsi        # 4178 <pagesize>
    18fc:	e8 cf 00 00 00       	call   19d0 <round_address_up>
    1901:	48 89 45 d0          	mov    %rax,-0x30(%rbp)
    1905:	48 8b 45 d0          	mov    -0x30(%rbp),%rax
    1909:	48 3b 05 88 28 00 00 	cmp    0x2888(%rip),%rax        # 4198 <mem_brk_chunk>
    1910:	0f 86 8c 00 00 00    	jbe    19a2 <extend_bmp+0x182>
    1916:	48 8b 3d 7b 28 00 00 	mov    0x287b(%rip),%rdi        # 4198 <mem_brk_chunk>
    191d:	48 8b 75 d0          	mov    -0x30(%rbp),%rsi
    1921:	48 8b 05 70 28 00 00 	mov    0x2870(%rip),%rax        # 4198 <mem_brk_chunk>
    1928:	48 29 c6             	sub    %rax,%rsi
    192b:	ba 03 00 00 00       	mov    $0x3,%edx
    1930:	e8 8b f8 ff ff       	call   11c0 <mprotect@plt>
    1935:	83 f8 ff             	cmp    $0xffffffff,%eax
    1938:	0f 85 64 00 00 00    	jne    19a2 <extend_bmp+0x182>
    193e:	48 8b 05 b3 26 00 00 	mov    0x26b3(%rip),%rax        # 3ff8 <stderr>
    1945:	48 8b 00             	mov    (%rax),%rax
    1948:	48 89 45 b8          	mov    %rax,-0x48(%rbp)
    194c:	48 8b 45 d0          	mov    -0x30(%rbp),%rax
    1950:	48 8b 0d 41 28 00 00 	mov    0x2841(%rip),%rcx        # 4198 <mem_brk_chunk>
    1957:	48 29 c8             	sub    %rcx,%rax
    195a:	48 89 45 c0          	mov    %rax,-0x40(%rbp)
    195e:	48 8b 05 33 28 00 00 	mov    0x2833(%rip),%rax        # 4198 <mem_brk_chunk>
    1965:	48 89 45 c8          	mov    %rax,-0x38(%rbp)
    1969:	e8 22 f8 ff ff       	call   1190 <__errno_location@plt>
    196e:	8b 38                	mov    (%rax),%edi
    1970:	e8 db f6 ff ff       	call   1050 <strerror@plt>
    1975:	48 8b 7d b8          	mov    -0x48(%rbp),%rdi
    1979:	48 8b 55 c0          	mov    -0x40(%rbp),%rdx
    197d:	48 8b 4d c8          	mov    -0x38(%rbp),%rcx
    1981:	49 89 c0             	mov    %rax,%r8
    1984:	48 8d 35 85 07 00 00 	lea    0x785(%rip),%rsi        # 2110 <current_arena_usage+0x6d0>
    198b:	b0 00                	mov    $0x0,%al
    198d:	e8 9e f7 ff ff       	call   1130 <fprintf@plt>
    1992:	48 c7 c0 ff ff ff ff 	mov    $0xffffffffffffffff,%rax
    1999:	48 89 45 f8          	mov    %rax,-0x8(%rbp)
    199d:	e9 1e 00 00 00       	jmp    19c0 <extend_bmp+0x1a0>
    19a2:	48 8b 45 d0          	mov    -0x30(%rbp),%rax
    19a6:	48 89 05 eb 27 00 00 	mov    %rax,0x27eb(%rip)        # 4198 <mem_brk_chunk>
    19ad:	48 8b 45 d8          	mov    -0x28(%rbp),%rax
    19b1:	48 89 05 d8 27 00 00 	mov    %rax,0x27d8(%rip)        # 4190 <mem_brk>
    19b8:	48 8b 45 e8          	mov    -0x18(%rbp),%rax
    19bc:	48 89 45 f8          	mov    %rax,-0x8(%rbp)
    19c0:	48 8b 45 f8          	mov    -0x8(%rbp),%rax
    19c4:	48 83 c4 50          	add    $0x50,%rsp
    19c8:	5d                   	pop    %rbp
    19c9:	c3                   	ret    
    19ca:	66 0f 1f 44 00 00    	nopw   0x0(%rax,%rax,1)

00000000000019d0 <round_address_up>:
    19d0:	55                   	push   %rbp
    19d1:	48 89 e5             	mov    %rsp,%rbp
    19d4:	48 83 ec 10          	sub    $0x10,%rsp
    19d8:	48 89 7d f8          	mov    %rdi,-0x8(%rbp)
    19dc:	48 89 75 f0          	mov    %rsi,-0x10(%rbp)
    19e0:	48 8b 45 f0          	mov    -0x10(%rbp),%rax
    19e4:	48 8b 4d f0          	mov    -0x10(%rbp),%rcx
    19e8:	48 83 e9 01          	sub    $0x1,%rcx
    19ec:	48 21 c8             	and    %rcx,%rax
    19ef:	48 83 f8 00          	cmp    $0x0,%rax
    19f3:	0f 85 05 00 00 00    	jne    19fe <round_address_up+0x2e>
    19f9:	e9 1f 00 00 00       	jmp    1a1d <round_address_up+0x4d>
    19fe:	48 8d 3d 41 07 00 00 	lea    0x741(%rip),%rdi        # 2146 <current_arena_usage+0x706>
    1a05:	48 8d 35 55 07 00 00 	lea    0x755(%rip),%rsi        # 2161 <current_arena_usage+0x721>
    1a0c:	ba 21 00 00 00       	mov    $0x21,%edx
    1a11:	48 8d 0d 83 07 00 00 	lea    0x783(%rip),%rcx        # 219b <current_arena_usage+0x75b>
    1a18:	e8 53 f7 ff ff       	call   1170 <__assert_fail@plt>
    1a1d:	48 8b 45 f8          	mov    -0x8(%rbp),%rax
    1a21:	48 03 45 f0          	add    -0x10(%rbp),%rax
    1a25:	48 83 e8 01          	sub    $0x1,%rax
    1a29:	48 8b 4d f0          	mov    -0x10(%rbp),%rcx
    1a2d:	48 83 e9 01          	sub    $0x1,%rcx
    1a31:	48 83 f1 ff          	xor    $0xffffffffffffffff,%rcx
    1a35:	48 21 c8             	and    %rcx,%rax
    1a38:	48 83 c4 10          	add    $0x10,%rsp
    1a3c:	5d                   	pop    %rbp
    1a3d:	c3                   	ret    
    1a3e:	66 90                	xchg   %ax,%ax

0000000000001a40 <current_arena_usage>:
    1a40:	55                   	push   %rbp
    1a41:	48 89 e5             	mov    %rsp,%rbp
    1a44:	48 8b 05 45 27 00 00 	mov    0x2745(%rip),%rax        # 4190 <mem_brk>
    1a4b:	48 8b 0d 2e 27 00 00 	mov    0x272e(%rip),%rcx        # 4180 <heap>
    1a52:	48 29 c8             	sub    %rcx,%rax
    1a55:	5d                   	pop    %rbp
    1a56:	c3                   	ret    
